; Function Attrs: mustprogress nounwind uwtable
define dso_local void @_ZN4llvm3opt3ArgC2ENS0_6OptionENS_9StringRefEjPKcS5_PKS1_(ptr noundef nonnull align 8 dereferenceable(88) %0, ptr %1, ptr %2, ptr %3, i64 %4, i32 noundef %5, ptr noundef %6, ptr noundef %7, ptr noundef %8) unnamed_addr #0 align 2 {
  store ptr %1, ptr %0, align 8
  %.sroa.25.0..sroa_idx = getelementptr inbounds i8, ptr %0, i64 8
  store ptr %2, ptr %.sroa.25.0..sroa_idx, align 8
  %10 = getelementptr inbounds nuw i8, ptr %0, i64 16
  store ptr %8, ptr %10, align 8
  %11 = getelementptr inbounds nuw i8, ptr %0, i64 24
  store ptr %3, ptr %11, align 8
  %.sroa.2.0..sroa_idx = getelementptr inbounds i8, ptr %0, i64 32
  store i64 %4, ptr %.sroa.2.0..sroa_idx, align 8
  %12 = getelementptr inbounds nuw i8, ptr %0, i64 40
  store i32 %5, ptr %12, align 8
  %13 = getelementptr inbounds nuw i8, ptr %0, i64 44
  %14 = load i8, ptr %13, align 4
  %15 = and i8 %14, -8
  store i8 %15, ptr %13, align 4
  %16 = getelementptr inbounds nuw i8, ptr %0, i64 48
  %17 = getelementptr inbounds i8, ptr %0, i64 64
  tail call void @_ZN4llvm15SmallVectorBaseIjEC2EPvm(ptr noundef nonnull align 8 dereferenceable(16) %16, ptr noundef nonnull %17, i64 noundef 2) #9
  %18 = getelementptr inbounds nuw i8, ptr %0, i64 80
  store ptr null, ptr %18, align 8
  %19 = tail call noundef i64 @_ZNK4llvm15SmallVectorBaseIjE4sizeEv(ptr noundef nonnull align 8 dereferenceable(16) %16) #9
  %20 = add i64 %19, 1
  %21 = tail call noundef i64 @_ZNK4llvm15SmallVectorBaseIjE8capacityEv(ptr noundef nonnull align 8 dereferenceable(16) %16) #9
  %.not.i.i.i = icmp ugt i64 %20, %21
  br i1 %.not.i.i.i, label %22, label %_ZN4llvm23SmallVectorTemplateBaseIPKcLb1EE9push_backES2_.exit

22:                                               ; preds = %9
  tail call void @_ZN4llvm15SmallVectorBaseIjE8grow_podEPvmm(ptr noundef nonnull align 8 dereferenceable(16) %16, ptr noundef nonnull %17, i64 noundef %20, i64 noundef 8) #9
  br label %_ZN4llvm23SmallVectorTemplateBaseIPKcLb1EE9push_backES2_.exit

_ZN4llvm23SmallVectorTemplateBaseIPKcLb1EE9push_backES2_.exit: ; preds = %9, %22
  %23 = load ptr, ptr %16, align 8
  %24 = tail call noundef i64 @_ZNK4llvm15SmallVectorBaseIjE4sizeEv(ptr noundef nonnull align 8 dereferenceable(16) %16) #9
  %25 = getelementptr inbounds ptr, ptr %23, i64 %24
  %26 = ptrtoint ptr %6 to i64
  store i64 %26, ptr %25, align 1
  %27 = tail call noundef i64 @_ZNK4llvm15SmallVectorBaseIjE4sizeEv(ptr noundef nonnull align 8 dereferenceable(16) %16) #9
  %28 = add i64 %27, 1
  tail call void @_ZN4llvm15SmallVectorBaseIjE8set_sizeEm(ptr noundef nonnull align 8 dereferenceable(16) %16, i64 noundef %28) #9
  %29 = tail call noundef i64 @_ZNK4llvm15SmallVectorBaseIjE4sizeEv(ptr noundef nonnull align 8 dereferenceable(16) %16) #9
  %30 = add i64 %29, 1
  %31 = tail call noundef i64 @_ZNK4llvm15SmallVectorBaseIjE8capacityEv(ptr noundef nonnull align 8 dereferenceable(16) %16) #9
  %.not.i.i.i6 = icmp ugt i64 %30, %31
  br i1 %.not.i.i.i6, label %32, label %_ZN4llvm23SmallVectorTemplateBaseIPKcLb1EE9push_backES2_.exit7

32:                                               ; preds = %_ZN4llvm23SmallVectorTemplateBaseIPKcLb1EE9push_backES2_.exit
  tail call void @_ZN4llvm15SmallVectorBaseIjE8grow_podEPvmm(ptr noundef nonnull align 8 dereferenceable(16) %16, ptr noundef nonnull %17, i64 noundef %30, i64 noundef 8) #9
  br label %_ZN4llvm23SmallVectorTemplateBaseIPKcLb1EE9push_backES2_.exit7

_ZN4llvm23SmallVectorTemplateBaseIPKcLb1EE9push_backES2_.exit7: ; preds = %_ZN4llvm23SmallVectorTemplateBaseIPKcLb1EE9push_backES2_.exit, %32
  %33 = load ptr, ptr %16, align 8
  %34 = tail call noundef i64 @_ZNK4llvm15SmallVectorBaseIjE4sizeEv(ptr noundef nonnull align 8 dereferenceable(16) %16) #9
  %35 = getelementptr inbounds ptr, ptr %33, i64 %34
  %36 = ptrtoint ptr %7 to i64
  store i64 %36, ptr %35, align 1
  %37 = tail call noundef i64 @_ZNK4llvm15SmallVectorBaseIjE4sizeEv(ptr noundef nonnull align 8 dereferenceable(16) %16) #9
  %38 = add i64 %37, 1
  tail call void @_ZN4llvm15SmallVectorBaseIjE8set_sizeEm(ptr noundef nonnull align 8 dereferenceable(16) %16, i64 noundef %38) #9
  ret void
}